; Function Attrs: nounwind uwtable
define internal i32 @IDAAres(double noundef %0, ptr noundef %1, ptr noundef %2, ptr noundef %3, ptr noundef %4) #0 {
  %6 = getelementptr inbounds nuw i8, ptr %4, i64 2112
  %7 = load ptr, ptr %6, align 8, !tbaa !3
  %8 = getelementptr inbounds nuw i8, ptr %7, i64 64
  %9 = load ptr, ptr %8, align 8, !tbaa !39
  %10 = getelementptr inbounds nuw i8, ptr %7, i64 192
  %11 = load i32, ptr %10, align 8, !tbaa !37
  %12 = icmp eq i32 %11, 0
  br i1 %12, label %13, label %32

13:                                               ; preds = %5
  %14 = getelementptr inbounds nuw i8, ptr %7, i64 188
  %15 = load i32, ptr %14, align 4, !tbaa !36
  %.not = icmp eq i32 %15, 0
  %16 = getelementptr inbounds nuw i8, ptr %7, i64 152
  %17 = load ptr, ptr %16, align 8, !tbaa !32
  %18 = getelementptr inbounds nuw i8, ptr %7, i64 344
  %19 = load ptr, ptr %18, align 8, !tbaa !48
  %20 = getelementptr inbounds nuw i8, ptr %7, i64 352
  %21 = load ptr, ptr %20, align 8, !tbaa !49
  br i1 %.not, label %28, label %22

22:                                               ; preds = %13
  %23 = getelementptr inbounds nuw i8, ptr %7, i64 360
  %24 = load ptr, ptr %23, align 8, !tbaa !51
  %25 = getelementptr inbounds nuw i8, ptr %7, i64 368
  %26 = load ptr, ptr %25, align 8, !tbaa !52
  %27 = tail call i32 %17(ptr noundef nonnull %4, double noundef %0, ptr noundef %19, ptr noundef %21, ptr noundef %24, ptr noundef %26) #9
  br label %30

28:                                               ; preds = %13
  %29 = tail call i32 %17(ptr noundef nonnull %4, double noundef %0, ptr noundef %19, ptr noundef %21, ptr noundef null, ptr noundef null) #9
  br label %30

30:                                               ; preds = %28, %22
  %.040 = phi i32 [ %27, %22 ], [ %29, %28 ]
  %.not42 = icmp eq i32 %.040, 0
  br i1 %.not42, label %32, label %31

31:                                               ; preds = %30
  tail call void (ptr, i32, i32, ptr, ptr, ptr, ...) @IDAProcessError(ptr noundef nonnull %4, i32 noundef -1, i32 noundef 3748, ptr noundef nonnull @__func__.IDAAres, ptr noundef nonnull @.str, ptr noundef nonnull @.str.19, double noundef %0) #9
  br label %55

32:                                               ; preds = %30, %5
  %33 = getelementptr inbounds nuw i8, ptr %9, i64 24
  %34 = load i32, ptr %33, align 8, !tbaa !146
  %.not43 = icmp eq i32 %34, 0
  %35 = getelementptr inbounds nuw i8, ptr %7, i64 344
  %36 = load ptr, ptr %35, align 8, !tbaa !48
  %37 = getelementptr inbounds nuw i8, ptr %7, i64 352
  %38 = load ptr, ptr %37, align 8, !tbaa !49
  br i1 %.not43, label %49, label %39

39:                                               ; preds = %32
  %40 = getelementptr inbounds nuw i8, ptr %9, i64 40
  %41 = load ptr, ptr %40, align 8, !tbaa !148
  %42 = getelementptr inbounds nuw i8, ptr %7, i64 360
  %43 = load ptr, ptr %42, align 8, !tbaa !51
  %44 = getelementptr inbounds nuw i8, ptr %7, i64 368
  %45 = load ptr, ptr %44, align 8, !tbaa !52
  %46 = getelementptr inbounds nuw i8, ptr %9, i64 64
  %47 = load ptr, ptr %46, align 8, !tbaa !149
  %48 = tail call i32 %41(double noundef %0, ptr noundef %36, ptr noundef %38, ptr noundef %43, ptr noundef %45, ptr noundef %1, ptr noundef %2, ptr noundef %3, ptr noundef %47) #9
  br label %55

49:                                               ; preds = %32
  %50 = getelementptr inbounds nuw i8, ptr %9, i64 32
  %51 = load ptr, ptr %50, align 8, !tbaa !145
  %52 = getelementptr inbounds nuw i8, ptr %9, i64 64
  %53 = load ptr, ptr %52, align 8, !tbaa !149
  %54 = tail call i32 %51(double noundef %0, ptr noundef %36, ptr noundef %38, ptr noundef %1, ptr noundef %2, ptr noundef %3, ptr noundef %53) #9
  br label %55

55:                                               ; preds = %39, %49, %31
  %.041 = phi i32 [ -1, %31 ], [ %48, %39 ], [ %54, %49 ]
  ret i32 %.041
}